; ModuleID = '23/823.c'
source_filename = "23/823.c"
target datalayout = "e-m:e-p270:32:32-p271:32:32-p272:64:64-i64:64-f80:128-n8:16:32:64-S128"
target triple = "x86_64-pc-linux-gnu"

@.str = private unnamed_addr constant [4 x i8] c"%s \00", align 1
@.str.1 = private unnamed_addr constant [4 x i8] c"%s\0A\00", align 1

; Function Attrs: noinline nounwind uwtable
define dso_local i32 @main() #0 {
  %1 = alloca i32, align 4
  %2 = alloca [150 x i8], align 16
  %3 = alloca i8*, align 8
  %4 = alloca i32, align 4
  %5 = alloca i32, align 4
  store i32 0, i32* %1, align 4
  %6 = getelementptr inbounds [150 x i8], [150 x i8]* %2, i64 0, i64 0
  %7 = call i32 (i8*, ...) bitcast (i32 (...)* @gets to i32 (i8*, ...)*)(i8* %6)
  %8 = getelementptr inbounds [150 x i8], [150 x i8]* %2, i64 0, i64 0
  %9 = call i64 @strlen(i8* %8) #3
  %10 = trunc i64 %9 to i32
  store i32 %10, i32* %4, align 4
  store i32 0, i32* %5, align 4
  %11 = getelementptr inbounds [150 x i8], [150 x i8]* %2, i64 0, i64 0
  %12 = load i32, i32* %4, align 4
  %13 = sext i32 %12 to i64
  %14 = getelementptr inbounds i8, i8* %11, i64 %13
  %15 = getelementptr inbounds i8, i8* %14, i64 -1
  store i8* %15, i8** %3, align 8
  br label %16

16:                                               ; preds = %38, %0
  %17 = load i8*, i8** %3, align 8
  %18 = getelementptr inbounds [150 x i8], [150 x i8]* %2, i64 0, i64 0
  %19 = icmp uge i8* %17, %18
  br i1 %19, label %20, label %41

20:                                               ; preds = %16
  %21 = load i8*, i8** %3, align 8
  %22 = load i8, i8* %21, align 1
  %23 = sext i8 %22 to i32
  %24 = icmp eq i32 %23, 32
  br i1 %24, label %25, label %34

25:                                               ; preds = %20
  %26 = load i32, i32* %5, align 4
  %27 = icmp ne i32 %26, 0
  br i1 %27, label %28, label %33

28:                                               ; preds = %25
  store i32 0, i32* %5, align 4
  %29 = load i8*, i8** %3, align 8
  store i8 0, i8* %29, align 1
  %30 = load i8*, i8** %3, align 8
  %31 = getelementptr inbounds i8, i8* %30, i64 1
  %32 = call i32 (i8*, ...) @printf(i8* getelementptr inbounds ([4 x i8], [4 x i8]* @.str, i64 0, i64 0), i8* %31)
  br label %33

33:                                               ; preds = %28, %25
  br label %37

34:                                               ; preds = %20
  %35 = load i32, i32* %5, align 4
  %36 = add nsw i32 %35, 1
  store i32 %36, i32* %5, align 4
  br label %37

37:                                               ; preds = %34, %33
  br label %38

38:                                               ; preds = %37
  %39 = load i8*, i8** %3, align 8
  %40 = getelementptr inbounds i8, i8* %39, i32 -1
  store i8* %40, i8** %3, align 8
  br label %16

41:                                               ; preds = %16
  %42 = load i32, i32* %5, align 4
  %43 = icmp ne i32 %42, 0
  br i1 %43, label %44, label %47

44:                                               ; preds = %41
  %45 = getelementptr inbounds [150 x i8], [150 x i8]* %2, i64 0, i64 0
  %46 = call i32 (i8*, ...) @printf(i8* getelementptr inbounds ([4 x i8], [4 x i8]* @.str.1, i64 0, i64 0), i8* %45)
  br label %47

47:                                               ; preds = %44, %41
  ret i32 0
}

declare dso_local i32 @gets(...) #1

; Function Attrs: nounwind readonly
declare dso_local i64 @strlen(i8*) #2

declare dso_local i32 @printf(i8*, ...) #1


!llvm.module.flags = !{!0}
!llvm.ident = !{!1}

!0 = !{i32 1, !"wchar_size", i32 4}
!1 = !{!"clang version 10.0.0-4ubuntu1 "}
