; ModuleID = 'source-C-CXX/22/823.c'
source_filename = "source-C-CXX/22/823.c"
target datalayout = "e-m:e-p270:32:32-p271:32:32-p272:64:64-i64:64-f80:128-n8:16:32:64-S128"
target triple = "x86_64-pc-linux-gnu"

@.str = private unnamed_addr constant [4 x i8] c"%s \00", align 1

; Function Attrs: nounwind sspstrong uwtable
define dso_local i32 @main() local_unnamed_addr #0 {
  %1 = alloca [150 x i8], align 16
  %2 = getelementptr inbounds [150 x i8], [150 x i8]* %1, i64 0, i64 0
  call void @llvm.lifetime.start.p0i8(i64 150, i8* nonnull %2) #6
  %3 = call i32 (i8*, ...) bitcast (i32 (...)* @gets to i32 (i8*, ...)*)(i8* nonnull %2) #6
  %4 = call i64 @strlen(i8* noundef nonnull %2) #7
  %5 = shl i64 %4, 32
  %6 = ashr exact i64 %5, 32
  %7 = getelementptr inbounds [150 x i8], [150 x i8]* %1, i64 0, i64 %6
  %8 = getelementptr inbounds i8, i8* %7, i64 -1
  %9 = icmp ult i8* %8, %2
  br i1 %9, label %30, label %10

10:                                               ; preds = %0, %22
  %11 = phi i8* [ %24, %22 ], [ %8, %0 ]
  %12 = phi i32 [ %23, %22 ], [ 0, %0 ]
  %13 = phi i8* [ %11, %22 ], [ %7, %0 ]
  %14 = load i8, i8* %11, align 1, !tbaa !5
  %15 = icmp eq i8 %14, 32
  br i1 %15, label %16, label %20

16:                                               ; preds = %10
  %17 = icmp eq i32 %12, 0
  br i1 %17, label %22, label %18

18:                                               ; preds = %16
  store i8 0, i8* %11, align 1, !tbaa !5
  %19 = call i32 (i8*, ...) @printf(i8* nonnull dereferenceable(1) getelementptr inbounds ([4 x i8], [4 x i8]* @.str, i64 0, i64 0), i8* nonnull %13)
  br label %22

20:                                               ; preds = %10
  %21 = add nsw i32 %12, 1
  br label %22

22:                                               ; preds = %20, %18, %16
  %23 = phi i32 [ 0, %18 ], [ 0, %16 ], [ %21, %20 ]
  %24 = getelementptr inbounds i8, i8* %11, i64 -1
  %25 = icmp ult i8* %24, %2
  br i1 %25, label %26, label %10, !llvm.loop !8

26:                                               ; preds = %22
  %27 = icmp eq i32 %23, 0
  br i1 %27, label %30, label %28

28:                                               ; preds = %26
  %29 = call i32 @puts(i8* nonnull %2)
  br label %30

30:                                               ; preds = %0, %28, %26
  call void @llvm.lifetime.end.p0i8(i64 150, i8* nonnull %2) #6
  ret i32 0
}

; Function Attrs: argmemonly mustprogress nofree nosync nounwind willreturn
declare void @llvm.lifetime.start.p0i8(i64 immarg, i8* nocapture) #1

declare i32 @gets(...) local_unnamed_addr #2

; Function Attrs: argmemonly mustprogress nofree nounwind readonly willreturn
declare i64 @strlen(i8* nocapture) local_unnamed_addr #3

; Function Attrs: nofree nounwind
declare noundef i32 @printf(i8* nocapture noundef readonly, ...) local_unnamed_addr #4

; Function Attrs: argmemonly mustprogress nofree nosync nounwind willreturn
declare void @llvm.lifetime.end.p0i8(i64 immarg, i8* nocapture) #1

; Function Attrs: nofree nounwind
declare noundef i32 @puts(i8* nocapture noundef readonly) local_unnamed_addr #5


!llvm.module.flags = !{!0, !1, !2, !3}
!llvm.ident = !{!4}

!0 = !{i32 1, !"wchar_size", i32 4}
!1 = !{i32 7, !"PIC Level", i32 2}
!2 = !{i32 7, !"PIE Level", i32 2}
!3 = !{i32 7, !"uwtable", i32 1}
!4 = !{!"clang version 13.0.0"}
!5 = !{!6, !6, i64 0}
!6 = !{!"omnipotent char", !7, i64 0}
!7 = !{!"Simple C/C++ TBAA"}
!8 = distinct !{!8, !9}
!9 = !{!"llvm.loop.mustprogress"}
